target datalayout = "e-m:e-p270:32:32-p271:32:32-p272:64:64-i64:64-i128:128-f80:128-n8:16:32:64-S128"
target triple = "x86_64-pc-linux-gnu"

%"class.ceres::internal::CudaVector" = type { i32, ptr, %"class.ceres::internal::CudaBuffer", ptr }
%"class.ceres::internal::CudaBuffer" = type { ptr, i64, ptr }

; Function Attrs: mustprogress nounwind uwtable
define linkonce_odr hidden noundef ptr @_ZNK5ceres8internal10CudaBufferIdE4dataEv(ptr noundef nonnull align 8 dereferenceable(24) %0) #1 comdat align 2 {
  %2 = alloca ptr, align 8
  store ptr %0, ptr %2, align 8
  %3 = load ptr, ptr %2, align 8
  %4 = getelementptr inbounds %"class.ceres::internal::CudaBuffer", ptr %3, i32 0, i32 0
  %5 = load ptr, ptr %4, align 8
  ret ptr %5
}

; Function Attrs: mustprogress nounwind uwtable
define linkonce_odr hidden noundef i32 @_ZNK5ceres8internal10CudaVector8num_rowsEv(ptr noundef nonnull align 8 dereferenceable(48) %0) #1 comdat align 2 {
  %2 = alloca ptr, align 8
  store ptr %0, ptr %2, align 8
  %3 = load ptr, ptr %2, align 8
  %4 = getelementptr inbounds %"class.ceres::internal::CudaVector", ptr %3, i32 0, i32 0
  %5 = load i32, ptr %4, align 8
  ret i32 %5
}

; Function Attrs: mustprogress uwtable
define hidden noundef nonnull align 8 dereferenceable(48) ptr @_ZN5ceres8internal10CudaVectoraSERKS1_(ptr noundef nonnull align 8 dereferenceable(48) %0, ptr noundef nonnull align 8 dereferenceable(48) %1) #2 align 2 {
  %3 = alloca ptr, align 8
  %4 = alloca ptr, align 8
  store ptr %0, ptr %3, align 8
  store ptr %1, ptr %4, align 8
  %5 = load ptr, ptr %3, align 8
  %6 = load ptr, ptr %4, align 8
  %7 = icmp ne ptr %5, %6
  br i1 %7, label %8, label %18

8:                                                ; preds = %2
  %9 = load ptr, ptr %4, align 8
  %10 = call noundef i32 @_ZNK5ceres8internal10CudaVector8num_rowsEv(ptr noundef nonnull align 8 dereferenceable(48) %9)
  call void @_ZN5ceres8internal10CudaVector6ResizeEi(ptr noundef nonnull align 8 dereferenceable(48) %5, i32 noundef %10)
  %11 = getelementptr inbounds %"class.ceres::internal::CudaVector", ptr %5, i32 0, i32 2
  %12 = load ptr, ptr %4, align 8
  %13 = getelementptr inbounds %"class.ceres::internal::CudaVector", ptr %12, i32 0, i32 2
  %14 = call noundef ptr @_ZNK5ceres8internal10CudaBufferIdE4dataEv(ptr noundef nonnull align 8 dereferenceable(24) %13)
  %15 = getelementptr inbounds %"class.ceres::internal::CudaVector", ptr %5, i32 0, i32 0
  %16 = load i32, ptr %15, align 8
  %17 = sext i32 %16 to i64
  call void @_ZN5ceres8internal10CudaBufferIdE16CopyFromGPUArrayEPKdm(ptr noundef nonnull align 8 dereferenceable(24) %11, ptr noundef %14, i64 noundef %17)
  br label %18

18:                                               ; preds = %8, %2
  ret ptr %5
}