; Function Attrs: mustprogress uwtable
define hidden noundef nonnull align 8 dereferenceable(48) ptr @_ZN5ceres8internal10CudaVectoraSERKS1_(ptr noundef nonnull returned align 8 dereferenceable(48) %0, ptr noundef nonnull readonly align 8 dereferenceable(48) %1) local_unnamed_addr #0 align 2 {
  %.not = icmp eq ptr %0, %1
  br i1 %.not, label %10, label %3

3:                                                ; preds = %2
  %4 = load i32, ptr %1, align 8
  tail call void @_ZN5ceres8internal10CudaVector6ResizeEi(ptr noundef nonnull align 8 dereferenceable(48) %0, i32 noundef %4)
  %5 = getelementptr inbounds i8, ptr %0, i64 16
  %6 = getelementptr inbounds i8, ptr %1, i64 16
  %7 = load ptr, ptr %6, align 8
  %8 = load i32, ptr %0, align 8
  %9 = sext i32 %8 to i64
  tail call void @_ZN5ceres8internal10CudaBufferIdE16CopyFromGPUArrayEPKdm(ptr noundef nonnull align 8 dereferenceable(24) %5, ptr noundef %7, i64 noundef %9)
  br label %10

10:                                               ; preds = %3, %2
  ret ptr %0
}